; Function Attrs: mustprogress nofree nosync nounwind memory(readwrite, inaccessiblemem: none) uwtable
define noundef range(i32 -1, 1) i32 @_ZN3zmq15socket_poller_t6modifyEPKNS_13socket_base_tEs(ptr noundef nonnull align 8 captures(none) dereferenceable(56) %0, ptr noundef readnone %1, i16 noundef signext %2) local_unnamed_addr #13 align 2 {
  %4 = getelementptr inbounds nuw i8, ptr %0, i64 16
  %5 = load ptr, ptr %4, align 8, !tbaa !22
  %6 = getelementptr inbounds nuw i8, ptr %0, i64 24
  %7 = load ptr, ptr %6, align 8, !tbaa !22
  %.not4.i = icmp eq ptr %5, %7
  br i1 %.not4.i, label %_ZL8find_if2IN9__gnu_cxx17__normal_iteratorIPN3zmq15socket_poller_t6item_tESt6vectorIS4_SaIS4_EEEEPKNS2_13socket_base_tEPFbRKS4_SC_EET_SH_SH_RKT0_T1_.exit, label %.lr.ph.i

.lr.ph.i:                                         ; preds = %3, %10
  %.sroa.01.05.i = phi ptr [ %11, %10 ], [ %5, %3 ]
  %8 = load ptr, ptr %.sroa.01.05.i, align 8, !tbaa !27
  %9 = icmp eq ptr %8, %1
  br i1 %9, label %_ZL8find_if2IN9__gnu_cxx17__normal_iteratorIPN3zmq15socket_poller_t6item_tESt6vectorIS4_SaIS4_EEEEPKNS2_13socket_base_tEPFbRKS4_SC_EET_SH_SH_RKT0_T1_.exit, label %10

10:                                               ; preds = %.lr.ph.i
  %11 = getelementptr inbounds nuw i8, ptr %.sroa.01.05.i, i64 32
  %.not.i = icmp eq ptr %11, %7
  br i1 %.not.i, label %_ZL8find_if2IN9__gnu_cxx17__normal_iteratorIPN3zmq15socket_poller_t6item_tESt6vectorIS4_SaIS4_EEEEPKNS2_13socket_base_tEPFbRKS4_SC_EET_SH_SH_RKT0_T1_.exit, label %.lr.ph.i, !llvm.loop !53

_ZL8find_if2IN9__gnu_cxx17__normal_iteratorIPN3zmq15socket_poller_t6item_tESt6vectorIS4_SaIS4_EEEEPKNS2_13socket_base_tEPFbRKS4_SC_EET_SH_SH_RKT0_T1_.exit: ; preds = %.lr.ph.i, %10, %3
  %.sroa.01.0.lcssa.i = phi ptr [ %5, %3 ], [ %11, %10 ], [ %.sroa.01.05.i, %.lr.ph.i ]
  %12 = icmp eq ptr %.sroa.01.0.lcssa.i, %7
  br i1 %12, label %13, label %15

13:                                               ; preds = %_ZL8find_if2IN9__gnu_cxx17__normal_iteratorIPN3zmq15socket_poller_t6item_tESt6vectorIS4_SaIS4_EEEEPKNS2_13socket_base_tEPFbRKS4_SC_EET_SH_SH_RKT0_T1_.exit
  %14 = tail call ptr @__errno_location() #26
  store i32 22, ptr %14, align 4, !tbaa !32
  br label %18

15:                                               ; preds = %_ZL8find_if2IN9__gnu_cxx17__normal_iteratorIPN3zmq15socket_poller_t6item_tESt6vectorIS4_SaIS4_EEEEPKNS2_13socket_base_tEPFbRKS4_SC_EET_SH_SH_RKT0_T1_.exit
  %16 = getelementptr inbounds nuw i8, ptr %.sroa.01.0.lcssa.i, i64 24
  store i16 %2, ptr %16, align 8, !tbaa !23
  %17 = getelementptr inbounds nuw i8, ptr %0, i64 40
  store i8 1, ptr %17, align 8, !tbaa !21
  br label %18

18:                                               ; preds = %15, %13
  %.0 = phi i32 [ -1, %13 ], [ 0, %15 ]
  ret i32 %.0
}